(dp0
Vfullscreen_mode
p1
I0
sVorientation
p2
Vhorizontal
p3
sVfocus
p4
(lp5
I94349517522976
aI94349517535776
aI94349517513264
asVsticky
p6
I00
sVurgent
p7
I00
sVlast_split_layout
p8
Vsplith
p9
sVfloating
p10
Vauto_off
p11
sVborder
p12
Vpixel
p13
sVid
p14
I94349517511744
sVcurrent_border_width
p15
I-1
sVlayout
p16
Vsplith
p17
sVpercent
p18
NsVworkspace_layout
p19
Vdefault
p20
sVwindow
p21
NsVnodes
p22
(lp23
(dp24
Vfullscreen_mode
p25
I0
sVorientation
p26
Vnone
p27
sVfocus
p28
(lp29
I94349517516352
asVsticky
p30
I00
sVurgent
p31
I00
sVlast_split_layout
p32
Vsplith
p33
sVfloating
p34
Vauto_off
p35
sVborder
p36
Vpixel
p37
sVid
p38
I94349517513264
sVcurrent_border_width
p39
I-1
sVlayout
p40
Voutput
p41
sVpercent
p42
F0.3333333333333333
sVworkspace_layout
p43
Vdefault
p44
sVwindow
p45
NsVnodes
p46
(lp47
(dp48
Vfullscreen_mode
p49
I0
sVorientation
p50
Vhorizontal
p51
sVfocus
p52
(lp53
I94349517519472
asVsticky
p54
I00
sVurgent
p55
I00
sVlast_split_layout
p56
Vsplith
p57
sVfloating
p58
Vauto_off
p59
sVborder
p60
Vpixel
p61
sVid
p62
I94349517516352
sVcurrent_border_width
p63
I-1
sVlayout
p64
Vsplith
p65
sVpercent
p66
NsVworkspace_layout
p67
Vdefault
p68
sVwindow
p69
NsVnodes
p70
(lp71
(dp72
Vfullscreen_mode
p73
I1
sVorientation
p74
Vnone
p75
sVfocus
p76
(lp77
sVsticky
p78
I00
sVurgent
p79
I00
sVnum
p80
I-1
sVlast_split_layout
p81
Vsplith
p82
sVfloating
p83
Vauto_off
p84
sVborder
p85
Vpixel
p86
sVid
p87
I94349517519472
sVcurrent_border_width
p88
I-1
sVlayout
p89
Vsplith
p90
sVpercent
p91
NsVworkspace_layout
p92
Vdefault
p93
sVwindow
p94
NsVnodes
p95
(lp96
sVtype
p97
Vworkspace
p98
sVdeco_rect
p99
(dp100
Vy
p101
I0
sVx
p102
I0
sVheight
p103
I0
sVwidth
p104
I0
ssVswallows
p105
(lp106
sVfocused
p107
I00
sVscratchpad_state
p108
Vnone
p109
sVrect
p110
(dp111
g101
I0
sg102
I0
sVheight
p112
I0
sVwidth
p113
I0
ssVwindow_rect
p114
(dp115
g101
I0
sg102
I0
sVheight
p116
I0
sVwidth
p117
I0
ssVname
p118
V__i3_scratch
p119
sVgeometry
p120
(dp121
g101
I0
sg102
I0
sVheight
p122
I0
sVwidth
p123
I0
ssVfloating_nodes
p124
(lp125
sVoutput
p126
V__i3
p127
sasVtype
p128
Vcon
p129
sVdeco_rect
p130
(dp131
g101
I0
sg102
I0
sVheight
p132
I0
sVwidth
p133
I0
ssVswallows
p134
(lp135
sVfocused
p136
I00
sVscratchpad_state
p137
Vnone
p138
sVrect
p139
(dp140
g101
I0
sg102
I0
sVheight
p141
I0
sVwidth
p142
I0
ssVwindow_rect
p143
(dp144
g101
I0
sg102
I0
sVheight
p145
I0
sVwidth
p146
I0
ssVname
p147
Vcontent
p148
sVgeometry
p149
(dp150
g101
I0
sg102
I0
sVheight
p151
I0
sVwidth
p152
I0
ssVfloating_nodes
p153
(lp154
sVoutput
p155
V__i3
p156
sasVtype
p157
Voutput
p158
sVdeco_rect
p159
(dp160
g101
I0
sg102
I0
sVheight
p161
I0
sVwidth
p162
I0
ssVswallows
p163
(lp164
sVfocused
p165
I00
sVscratchpad_state
p166
Vnone
p167
sVrect
p168
(dp169
g101
I0
sg102
I0
sVheight
p170
I1080
sVwidth
p171
I1920
ssVwindow_rect
p172
(dp173
g101
I0
sg102
I0
sVheight
p174
I0
sVwidth
p175
I0
ssVname
p176
V__i3
p177
sVgeometry
p178
(dp179
g101
I0
sg102
I0
sVheight
p180
I0
sVwidth
p181
I0
ssVfloating_nodes
p182
(lp183
sa(dp184
Vfullscreen_mode
p185
I0
sVorientation
p186
Vnone
p187
sVfocus
p188
(lp189
I94349517542192
aI94349517538960
aI94349517545424
asVsticky
p190
I00
sVurgent
p191
I00
sVlast_split_layout
p192
Vsplith
p193
sVfloating
p194
Vauto_off
p195
sVborder
p196
Vpixel
p197
sVid
p198
I94349517535776
sVcurrent_border_width
p199
I-1
sVlayout
p200
Voutput
p201
sVpercent
p202
F0.3333333333333333
sVworkspace_layout
p203
Vdefault
p204
sVwindow
p205
NsVnodes
p206
(lp207
(dp208
Vfullscreen_mode
p209
I0
sVorientation
p210
Vnone
p211
sVfocus
p212
(lp213
I94349517676624
asVsticky
p214
I00
sVurgent
p215
I00
sVlast_split_layout
p216
Vsplith
p217
sVfloating
p218
Vauto_off
p219
sVborder
p220
Vpixel
p221
sVid
p222
I94349517538960
sVcurrent_border_width
p223
I-1
sVlayout
p224
Vdockarea
p225
sVpercent
p226
NsVworkspace_layout
p227
Vdefault
p228
sVwindow
p229
NsVnodes
p230
(lp231
(dp232
Vwindow_properties
p233
(dp234
Vinstance
p235
Vi3bar
p236
sVtransient_for
p237
NsVclass
p238
Vi3bar
p239
sVtitle
p240
Vi3bar for output eDP1
p241
ssVfullscreen_mode
p242
I0
sVorientation
p243
Vnone
p244
sVprocess
p245
S'i3bar'
p246
sVfocus
p247
(lp248
sVsticky
p249
I00
sVurgent
p250
I00
sVlast_split_layout
p251
Vsplith
p252
sVfloating
p253
Vauto_off
p254
sVborder
p255
Vpixel
p256
sVid
p257
I94349517676624
sVcurrent_border_width
p258
I2
sVlayout
p259
Vsplith
p260
sVpercent
p261
F1.0
sVworkspace_layout
p262
Vdefault
p263
sVwindow
p264
I20971567
sVnodes
p265
(lp266
sVtype
p267
Vcon
p268
sVdeco_rect
p269
(dp270
g101
I0
sg102
I0
sVheight
p271
I0
sVwidth
p272
I0
ssVswallows
p273
(lp274
sVfocused
p275
I00
sVscratchpad_state
p276
Vnone
p277
sVrect
p278
(dp279
g101
I0
sg102
I0
sVheight
p280
I19
sVwidth
p281
I1920
ssVwindow_rect
p282
(dp283
g101
I0
sg102
I0
sVheight
p284
I19
sVwidth
p285
I1920
ssVname
p286
Vi3bar for output eDP1
p287
sVgeometry
p288
(dp289
g101
I1061
sg102
I0
sVheight
p290
I19
sVwidth
p291
I1920
ssVfloating_nodes
p292
(lp293
sVoutput
p294
VeDP1
p295
sasVtype
p296
Vdockarea
p297
sVdeco_rect
p298
(dp299
g101
I0
sg102
I0
sVheight
p300
I0
sVwidth
p301
I0
ssVswallows
p302
(lp303
(dp304
Vdock
p305
I2
sVinsert_where
p306
I2
sasVfocused
p307
I00
sVscratchpad_state
p308
Vnone
p309
sVrect
p310
(dp311
g101
I0
sg102
I0
sVheight
p312
I19
sVwidth
p313
I1920
ssVwindow_rect
p314
(dp315
g101
I0
sg102
I0
sVheight
p316
I0
sVwidth
p317
I0
ssVname
p318
Vtopdock
p319
sVgeometry
p320
(dp321
g101
I0
sg102
I0
sVheight
p322
I0
sVwidth
p323
I0
ssVfloating_nodes
p324
(lp325
sVoutput
p326
VeDP1
p327
sa(dp328
Vfullscreen_mode
p329
I0
sVorientation
p330
Vhorizontal
p331
sVfocus
p332
(lp333
I94349517633904
aI94349517622416
asVsticky
p334
I00
sVurgent
p335
I00
sVlast_split_layout
p336
Vsplith
p337
sVfloating
p338
Vauto_off
p339
sVborder
p340
Vpixel
p341
sVid
p342
I94349517542192
sVcurrent_border_width
p343
I-1
sVlayout
p344
Vsplith
p345
sVpercent
p346
NsVworkspace_layout
p347
Vdefault
p348
sVwindow
p349
NsVnodes
p350
(lp351
(dp352
Vfullscreen_mode
p353
I0
sVorientation
p354
Vhorizontal
p355
sVfocus
p356
(lp357
I94349517720896
aI94349517645888
asVsticky
p358
I00
sVurgent
p359
I00
sVnum
p360
I9
sVlast_split_layout
p361
Vsplith
p362
sVfloating
p363
Vauto_off
p364
sVborder
p365
Vpixel
p366
sVid
p367
I94349517622416
sVcurrent_border_width
p368
I-1
sVlayout
p369
Vsplith
p370
sVpercent
p371
F0.5
sVworkspace_layout
p372
Vdefault
p373
sVwindow
p374
NsVnodes
p375
(lp376
(dp377
Vwindow_properties
p378
(dp379
Vinstance
p380
Vtermite
p381
sVtransient_for
p382
NsVclass
p383
VTermite
p384
sVtitle
p385
Vlein  /home/ollie/repos/weshop/webapp
p386
ssVfullscreen_mode
p387
I0
sVorientation
p388
Vnone
p389
sg245
S'termite'
p390
sVfocus
p391
(lp392
sVsticky
p393
I00
sVurgent
p394
I00
sVlast_split_layout
p395
Vsplith
p396
sVfloating
p397
Vauto_off
p398
sVborder
p399
Vpixel
p400
sVid
p401
I94349517645888
sVcurrent_border_width
p402
I2
sVlayout
p403
Vsplith
p404
sVpercent
p405
F0.5
sVworkspace_layout
p406
Vdefault
p407
sVwindow
p408
I50331651
sVnodes
p409
(lp410
sVtype
p411
Vcon
p412
sVdeco_rect
p413
(dp414
g101
I0
sg102
I0
sVheight
p415
I0
sVwidth
p416
I0
ssVswallows
p417
(lp418
sVfocused
p419
I00
sVscratchpad_state
p420
Vnone
p421
sVrect
p422
(dp423
g101
I19
sg102
I0
sVheight
p424
I1061
sVwidth
p425
I960
ssVwindow_rect
p426
(dp427
g101
I2
sg102
I2
sVheight
p428
I1057
sVwidth
p429
I956
ssVname
p430
Vlein  /home/ollie/repos/weshop/webapp
p431
sVgeometry
p432
(dp433
g101
I0
sg102
I0
sVheight
p434
I362
sVwidth
p435
I574
ssVfloating_nodes
p436
(lp437
sVoutput
p438
VeDP1
p439
sa(dp440
Vfullscreen_mode
p441
I0
sVorientation
p442
Vhorizontal
p443
sVfocus
p444
(lp445
I94349517436800
asVsticky
p446
I00
sVurgent
p447
I00
sVlast_split_layout
p448
Vsplith
p449
sVfloating
p450
Vauto_off
p451
sVborder
p452
Vpixel
p453
sVid
p454
I94349517720896
sVcurrent_border_width
p455
I-1
sVlayout
p456
Vsplith
p457
sVpercent
p458
F0.5
sVworkspace_layout
p459
Vdefault
p460
sVwindow
p461
NsVnodes
p462
(lp463
(dp464
Vfullscreen_mode
p465
I0
sVorientation
p466
Vhorizontal
p467
sVfocus
p468
(lp469
I94349517659296
asVsticky
p470
I00
sVurgent
p471
I00
sVlast_split_layout
p472
Vsplith
p473
sVfloating
p474
Vauto_off
p475
sVborder
p476
Vpixel
p477
sVid
p478
I94349517436800
sVcurrent_border_width
p479
I-1
sVlayout
p480
Vsplith
p481
sVpercent
p482
NsVworkspace_layout
p483
Vdefault
p484
sVwindow
p485
NsVnodes
p486
(lp487
(dp488
Vwindow_properties
p489
(dp490
Vinstance
p491
Vtermite
p492
sVtransient_for
p493
NsVclass
p494
VTermite
p495
sVtitle
p496
Venv  /home/ollie/repos/weshop/webapp
p497
ssVfullscreen_mode
p498
I0
sVorientation
p499
Vnone
p500
sg245
S'termite'
p501
sVfocus
p502
(lp503
sVsticky
p504
I00
sVurgent
p505
I00
sVlast_split_layout
p506
Vsplith
p507
sVfloating
p508
Vauto_off
p509
sVborder
p510
Vpixel
p511
sVid
p512
I94349517659296
sVcurrent_border_width
p513
I2
sVlayout
p514
Vsplith
p515
sVpercent
p516
F1.0
sVworkspace_layout
p517
Vdefault
p518
sVwindow
p519
I52428803
sVnodes
p520
(lp521
sVtype
p522
Vcon
p523
sVdeco_rect
p524
(dp525
g101
I0
sg102
I0
sVheight
p526
I0
sVwidth
p527
I0
ssVswallows
p528
(lp529
sVfocused
p530
I00
sVscratchpad_state
p531
Vnone
p532
sVrect
p533
(dp534
g101
I19
sg102
I960
sVheight
p535
I1061
sVwidth
p536
I960
ssVwindow_rect
p537
(dp538
g101
I2
sg102
I2
sVheight
p539
I1057
sVwidth
p540
I956
ssVname
p541
Venv  /home/ollie/repos/weshop/webapp
p542
sVgeometry
p543
(dp544
g101
I0
sg102
I0
sVheight
p545
I362
sVwidth
p546
I574
ssVfloating_nodes
p547
(lp548
sVoutput
p549
VeDP1
p550
sasVtype
p551
Vcon
p552
sVdeco_rect
p553
(dp554
g101
I0
sg102
I0
sVheight
p555
I0
sVwidth
p556
I0
ssVswallows
p557
(lp558
sVfocused
p559
I00
sVscratchpad_state
p560
Vnone
p561
sVrect
p562
(dp563
g101
I19
sg102
I960
sVheight
p564
I1061
sVwidth
p565
I960
ssVwindow_rect
p566
(dp567
g101
I0
sg102
I0
sVheight
p568
I0
sVwidth
p569
I0
ssVname
p570
NsVgeometry
p571
(dp572
g101
I0
sg102
I0
sVheight
p573
I0
sVwidth
p574
I0
ssVfloating_nodes
p575
(lp576
sVoutput
p577
VeDP1
p578
sasVtype
p579
Vcon
p580
sVdeco_rect
p581
(dp582
g101
I0
sg102
I0
sVheight
p583
I0
sVwidth
p584
I0
ssVswallows
p585
(lp586
sVfocused
p587
I00
sVscratchpad_state
p588
Vnone
p589
sVrect
p590
(dp591
g101
I19
sg102
I960
sVheight
p592
I1061
sVwidth
p593
I960
ssVwindow_rect
p594
(dp595
g101
I0
sg102
I0
sVheight
p596
I0
sVwidth
p597
I0
ssVname
p598
NsVgeometry
p599
(dp600
g101
I0
sg102
I0
sVheight
p601
I0
sVwidth
p602
I0
ssVfloating_nodes
p603
(lp604
sVoutput
p605
VeDP1
p606
sasVtype
p607
Vworkspace
p608
sVdeco_rect
p609
(dp610
g101
I0
sg102
I0
sVheight
p611
I0
sVwidth
p612
I0
ssVswallows
p613
(lp614
sVfocused
p615
I00
sVscratchpad_state
p616
Vnone
p617
sVrect
p618
(dp619
g101
I19
sg102
I0
sVheight
p620
I1061
sVwidth
p621
I1920
ssVwindow_rect
p622
(dp623
g101
I0
sg102
I0
sVheight
p624
I0
sVwidth
p625
I0
ssVname
p626
V9
p627
sVgeometry
p628
(dp629
g101
I0
sg102
I0
sVheight
p630
I0
sVwidth
p631
I0
ssVfloating_nodes
p632
(lp633
sVoutput
p634
VeDP1
p635
sa(dp636
Vfullscreen_mode
p637
I1
sVorientation
p638
Vhorizontal
p639
sVfocus
p640
(lp641
I94349517783040
asVsticky
p642
I00
sVurgent
p643
I00
sVnum
p644
I10
sVlast_split_layout
p645
Vsplith
p646
sVfloating
p647
Vauto_off
p648
sVborder
p649
Vpixel
p650
sVid
p651
I94349517633904
sVcurrent_border_width
p652
I-1
sVlayout
p653
Vsplith
p654
sVpercent
p655
F0.5
sVworkspace_layout
p656
Vdefault
p657
sVwindow
p658
NsVnodes
p659
(lp660
(dp661
Vfullscreen_mode
p662
I0
sVorientation
p663
Vhorizontal
p664
sVfocus
p665
(lp666
I94349517651664
aI94349517804944
asVsticky
p667
I00
sVurgent
p668
I00
sVlast_split_layout
p669
Vsplith
p670
sVfloating
p671
Vauto_off
p672
sVborder
p673
Vpixel
p674
sVid
p675
I94349517783040
sVcurrent_border_width
p676
I-1
sVlayout
p677
Vsplith
p678
sVpercent
p679
F1.0
sVworkspace_layout
p680
Vdefault
p681
sVwindow
p682
NsVnodes
p683
(lp684
(dp685
Vwindow_properties
p686
(dp687
Vinstance
p688
Vspotify
p689
sVtransient_for
p690
NsVclass
p691
VSpotify
p692
sVtitle
p693
VSpotify
p694
ssVfullscreen_mode
p695
I0
sVorientation
p696
Vnone
p697
sg245
S'spotify'
p698
sVfocus
p699
(lp700
sVsticky
p701
I00
sVurgent
p702
I00
sVlast_split_layout
p703
Vsplith
p704
sVfloating
p705
Vauto_off
p706
sVborder
p707
Vpixel
p708
sVid
p709
I94349517804944
sVcurrent_border_width
p710
I2
sVlayout
p711
Vsplith
p712
sVpercent
p713
F0.5
sVworkspace_layout
p714
Vdefault
p715
sVwindow
p716
I46137345
sVnodes
p717
(lp718
sVtype
p719
Vcon
p720
sVdeco_rect
p721
(dp722
g101
I0
sg102
I0
sVheight
p723
I0
sVwidth
p724
I0
ssVswallows
p725
(lp726
sVfocused
p727
I00
sVscratchpad_state
p728
Vnone
p729
sVrect
p730
(dp731
g101
I19
sg102
I0
sVheight
p732
I1061
sVwidth
p733
I960
ssVwindow_rect
p734
(dp735
g101
I2
sg102
I2
sVheight
p736
I1057
sVwidth
p737
I956
ssVname
p738
VSpotify
p739
sVgeometry
p740
(dp741
g101
I0
sg102
I0
sVheight
p742
I600
sVwidth
p743
I800
ssVfloating_nodes
p744
(lp745
sVoutput
p746
VeDP1
p747
sa(dp748
Vfullscreen_mode
p749
I0
sVorientation
p750
Vhorizontal
p751
sVfocus
p752
(lp753
I94349517650960
asVsticky
p754
I00
sVurgent
p755
I00
sVlast_split_layout
p756
Vsplith
p757
sVfloating
p758
Vauto_off
p759
sVborder
p760
Vpixel
p761
sVid
p762
I94349517651664
sVcurrent_border_width
p763
I-1
sVlayout
p764
Vsplith
p765
sVpercent
p766
F0.5
sVworkspace_layout
p767
Vdefault
p768
sVwindow
p769
NsVnodes
p770
(lp771
(dp772
Vfullscreen_mode
p773
I0
sVorientation
p774
Vvertical
p775
sVfocus
p776
(lp777
I94349517657856
asVsticky
p778
I00
sVurgent
p779
I00
sVlast_split_layout
p780
Vsplitv
p781
sVfloating
p782
Vauto_off
p783
sVborder
p784
Vpixel
p785
sVid
p786
I94349517650960
sVcurrent_border_width
p787
I-1
sVlayout
p788
Vsplitv
p789
sVpercent
p790
F1.0
sVworkspace_layout
p791
Vdefault
p792
sVwindow
p793
NsVnodes
p794
(lp795
(dp796
Vfullscreen_mode
p797
I0
sVorientation
p798
Vvertical
p799
sVfocus
p800
(lp801
I94349517680096
asVsticky
p802
I00
sVurgent
p803
I00
sVlast_split_layout
p804
Vsplith
p805
sVfloating
p806
Vauto_off
p807
sVborder
p808
Vpixel
p809
sVid
p810
I94349517657856
sVcurrent_border_width
p811
I-1
sVlayout
p812
Vstacked
p813
sVpercent
p814
F1.0
sVworkspace_layout
p815
Vdefault
p816
sVwindow
p817
NsVnodes
p818
(lp819
(dp820
Vwindow_properties
p821
(dp822
Vinstance
p823
VNavigator
p824
sVtransient_for
p825
NsVwindow_role
p826
Vbrowser
p827
sVclass
p828
VFirefox
p829
sVtitle
p830
VWeShop | Trello - Mozilla Firefox
p831
ssVfullscreen_mode
p832
I0
sVorientation
p833
Vnone
p834
sg245
S'firefox'
p835
sVfocus
p836
(lp837
sVsticky
p838
I00
sVurgent
p839
I00
sVlast_split_layout
p840
Vsplith
p841
sVfloating
p842
Vauto_off
p843
sVborder
p844
Vpixel
p845
sVid
p846
I94349517680096
sVcurrent_border_width
p847
I2
sVlayout
p848
Vsplith
p849
sVpercent
p850
F1.0
sVworkspace_layout
p851
Vdefault
p852
sVwindow
p853
I37748790
sVnodes
p854
(lp855
sVtype
p856
Vcon
p857
sVdeco_rect
p858
(dp859
g101
I0
sg102
I0
sVheight
p860
I18
sVwidth
p861
I960
ssVswallows
p862
(lp863
sVfocused
p864
I00
sVscratchpad_state
p865
Vnone
p866
sVrect
p867
(dp868
g101
I19
sg102
I960
sVheight
p869
I1061
sVwidth
p870
I960
ssVwindow_rect
p871
(dp872
g101
I2
sg102
I2
sVheight
p873
I1057
sVwidth
p874
I956
ssVname
p875
VWeShop | Trello - Mozilla Firefox
p876
sVgeometry
p877
(dp878
g101
I0
sg102
I0
sVheight
p879
I1057
sVwidth
p880
I956
ssVfloating_nodes
p881
(lp882
sVoutput
p883
VeDP1
p884
sasVtype
p885
Vcon
p886
sVdeco_rect
p887
(dp888
g101
I0
sg102
I0
sVheight
p889
I0
sVwidth
p890
I0
ssVswallows
p891
(lp892
sVfocused
p893
I00
sVscratchpad_state
p894
Vnone
p895
sVrect
p896
(dp897
g101
I19
sg102
I960
sVheight
p898
I1061
sVwidth
p899
I960
ssVwindow_rect
p900
(dp901
g101
I0
sg102
I0
sVheight
p902
I0
sVwidth
p903
I0
ssVname
p904
NsVgeometry
p905
(dp906
g101
I0
sg102
I0
sVheight
p907
I0
sVwidth
p908
I0
ssVfloating_nodes
p909
(lp910
sVoutput
p911
VeDP1
p912
sasVtype
p913
Vcon
p914
sVdeco_rect
p915
(dp916
g101
I0
sg102
I0
sVheight
p917
I0
sVwidth
p918
I0
ssVswallows
p919
(lp920
sVfocused
p921
I00
sVscratchpad_state
p922
Vnone
p923
sVrect
p924
(dp925
g101
I19
sg102
I960
sVheight
p926
I1061
sVwidth
p927
I960
ssVwindow_rect
p928
(dp929
g101
I0
sg102
I0
sVheight
p930
I0
sVwidth
p931
I0
ssVname
p932
NsVgeometry
p933
(dp934
g101
I0
sg102
I0
sVheight
p935
I0
sVwidth
p936
I0
ssVfloating_nodes
p937
(lp938
sVoutput
p939
VeDP1
p940
sasVtype
p941
Vcon
p942
sVdeco_rect
p943
(dp944
g101
I0
sg102
I0
sVheight
p945
I0
sVwidth
p946
I0
ssVswallows
p947
(lp948
sVfocused
p949
I00
sVscratchpad_state
p950
Vnone
p951
sVrect
p952
(dp953
g101
I19
sg102
I960
sVheight
p954
I1061
sVwidth
p955
I960
ssVwindow_rect
p956
(dp957
g101
I0
sg102
I0
sVheight
p958
I0
sVwidth
p959
I0
ssVname
p960
NsVgeometry
p961
(dp962
g101
I0
sg102
I0
sVheight
p963
I0
sVwidth
p964
I0
ssVfloating_nodes
p965
(lp966
sVoutput
p967
VeDP1
p968
sasVtype
p969
Vcon
p970
sVdeco_rect
p971
(dp972
g101
I0
sg102
I0
sVheight
p973
I0
sVwidth
p974
I0
ssVswallows
p975
(lp976
sVfocused
p977
I00
sVscratchpad_state
p978
Vnone
p979
sVrect
p980
(dp981
g101
I19
sg102
I0
sVheight
p982
I1061
sVwidth
p983
I1920
ssVwindow_rect
p984
(dp985
g101
I0
sg102
I0
sVheight
p986
I0
sVwidth
p987
I0
ssVname
p988
NsVgeometry
p989
(dp990
g101
I0
sg102
I0
sVheight
p991
I0
sVwidth
p992
I0
ssVfloating_nodes
p993
(lp994
sVoutput
p995
VeDP1
p996
sasVtype
p997
Vworkspace
p998
sVdeco_rect
p999
(dp1000
g101
I0
sg102
I0
sVheight
p1001
I0
sVwidth
p1002
I0
ssVswallows
p1003
(lp1004
sVfocused
p1005
I00
sVscratchpad_state
p1006
Vnone
p1007
sVrect
p1008
(dp1009
g101
I19
sg102
I0
sVheight
p1010
I1061
sVwidth
p1011
I1920
ssVwindow_rect
p1012
(dp1013
g101
I0
sg102
I0
sVheight
p1014
I0
sVwidth
p1015
I0
ssVname
p1016
V10
p1017
sVgeometry
p1018
(dp1019
g101
I0
sg102
I0
sVheight
p1020
I0
sVwidth
p1021
I0
ssVfloating_nodes
p1022
(lp1023
sVoutput
p1024
VeDP1
p1025
sasVtype
p1026
Vcon
p1027
sVdeco_rect
p1028
(dp1029
g101
I0
sg102
I0
sVheight
p1030
I0
sVwidth
p1031
I0
ssVswallows
p1032
(lp1033
sVfocused
p1034
I00
sVscratchpad_state
p1035
Vnone
p1036
sVrect
p1037
(dp1038
g101
I19
sg102
I0
sVheight
p1039
I1061
sVwidth
p1040
I1920
ssVwindow_rect
p1041
(dp1042
g101
I0
sg102
I0
sVheight
p1043
I0
sVwidth
p1044
I0
ssVname
p1045
Vcontent
p1046
sVgeometry
p1047
(dp1048
g101
I0
sg102
I0
sVheight
p1049
I0
sVwidth
p1050
I0
ssVfloating_nodes
p1051
(lp1052
sVoutput
p1053
VeDP1
p1054
sa(dp1055
Vfullscreen_mode
p1056
I0
sVorientation
p1057
Vnone
p1058
sVfocus
p1059
(lp1060
sVsticky
p1061
I00
sVurgent
p1062
I00
sVlast_split_layout
p1063
Vsplith
p1064
sVfloating
p1065
Vauto_off
p1066
sVborder
p1067
Vpixel
p1068
sVid
p1069
I94349517545424
sVcurrent_border_width
p1070
I-1
sVlayout
p1071
Vdockarea
p1072
sVpercent
p1073
NsVworkspace_layout
p1074
Vdefault
p1075
sVwindow
p1076
NsVnodes
p1077
(lp1078
sVtype
p1079
Vdockarea
p1080
sVdeco_rect
p1081
(dp1082
g101
I0
sg102
I0
sVheight
p1083
I0
sVwidth
p1084
I0
ssVswallows
p1085
(lp1086
(dp1087
Vdock
p1088
I3
sVinsert_where
p1089
I2
sasVfocused
p1090
I00
sVscratchpad_state
p1091
Vnone
p1092
sVrect
p1093
(dp1094
g101
I1080
sg102
I0
sVheight
p1095
I0
sVwidth
p1096
I1920
ssVwindow_rect
p1097
(dp1098
g101
I0
sg102
I0
sVheight
p1099
I0
sVwidth
p1100
I0
ssVname
p1101
Vbottomdock
p1102
sVgeometry
p1103
(dp1104
g101
I0
sg102
I0
sVheight
p1105
I0
sVwidth
p1106
I0
ssVfloating_nodes
p1107
(lp1108
sVoutput
p1109
VeDP1
p1110
sasVtype
p1111
Voutput
p1112
sVdeco_rect
p1113
(dp1114
g101
I0
sg102
I0
sVheight
p1115
I0
sVwidth
p1116
I0
ssVswallows
p1117
(lp1118
sVfocused
p1119
I00
sVscratchpad_state
p1120
Vnone
p1121
sVrect
p1122
(dp1123
g101
I0
sg102
I0
sVheight
p1124
I1080
sVwidth
p1125
I1920
ssVwindow_rect
p1126
(dp1127
g101
I0
sg102
I0
sVheight
p1128
I0
sVwidth
p1129
I0
ssVname
p1130
VeDP1
p1131
sVgeometry
p1132
(dp1133
g101
I0
sg102
I0
sVheight
p1134
I0
sVwidth
p1135
I0
ssVfloating_nodes
p1136
(lp1137
sa(dp1138
Vfullscreen_mode
p1139
I0
sVorientation
p1140
Vnone
p1141
sVfocus
p1142
(lp1143
I94349517529360
aI94349517526128
aI94349517532544
asVsticky
p1144
I00
sVurgent
p1145
I00
sVlast_split_layout
p1146
Vsplith
p1147
sVfloating
p1148
Vauto_off
p1149
sVborder
p1150
Vpixel
p1151
sVid
p1152
I94349517522976
sVcurrent_border_width
p1153
I-1
sVlayout
p1154
Voutput
p1155
sVpercent
p1156
F0.3333333333333333
sVworkspace_layout
p1157
Vdefault
p1158
sVwindow
p1159
NsVnodes
p1160
(lp1161
(dp1162
Vfullscreen_mode
p1163
I0
sVorientation
p1164
Vnone
p1165
sVfocus
p1166
(lp1167
I94349517679504
asVsticky
p1168
I00
sVurgent
p1169
I00
sVlast_split_layout
p1170
Vsplith
p1171
sVfloating
p1172
Vauto_off
p1173
sVborder
p1174
Vpixel
p1175
sVid
p1176
I94349517526128
sVcurrent_border_width
p1177
I-1
sVlayout
p1178
Vdockarea
p1179
sVpercent
p1180
NsVworkspace_layout
p1181
Vdefault
p1182
sVwindow
p1183
NsVnodes
p1184
(lp1185
(dp1186
Vwindow_properties
p1187
(dp1188
Vinstance
p1189
Vi3bar
p1190
sVtransient_for
p1191
NsVclass
p1192
Vi3bar
p1193
sVtitle
p1194
Vi3bar for output DP1
p1195
ssVfullscreen_mode
p1196
I0
sVorientation
p1197
Vnone
p1198
sg245
S'i3bar'
p1199
sVfocus
p1200
(lp1201
sVsticky
p1202
I00
sVurgent
p1203
I00
sVlast_split_layout
p1204
Vsplith
p1205
sVfloating
p1206
Vauto_off
p1207
sVborder
p1208
Vpixel
p1209
sVid
p1210
I94349517679504
sVcurrent_border_width
p1211
I2
sVlayout
p1212
Vsplith
p1213
sVpercent
p1214
F1.0
sVworkspace_layout
p1215
Vdefault
p1216
sVwindow
p1217
I20971573
sVnodes
p1218
(lp1219
sVtype
p1220
Vcon
p1221
sVdeco_rect
p1222
(dp1223
g101
I0
sg102
I0
sVheight
p1224
I0
sVwidth
p1225
I0
ssVswallows
p1226
(lp1227
sVfocused
p1228
I00
sVscratchpad_state
p1229
Vnone
p1230
sVrect
p1231
(dp1232
g101
I0
sg102
I1920
sVheight
p1233
I19
sVwidth
p1234
I1920
ssVwindow_rect
p1235
(dp1236
g101
I0
sg102
I0
sVheight
p1237
I19
sVwidth
p1238
I1920
ssVname
p1239
Vi3bar for output DP1
p1240
sVgeometry
p1241
(dp1242
g101
I1061
sg102
I1920
sVheight
p1243
I19
sVwidth
p1244
I1920
ssVfloating_nodes
p1245
(lp1246
sVoutput
p1247
VDP1
p1248
sasVtype
p1249
Vdockarea
p1250
sVdeco_rect
p1251
(dp1252
g101
I0
sg102
I0
sVheight
p1253
I0
sVwidth
p1254
I0
ssVswallows
p1255
(lp1256
(dp1257
Vdock
p1258
I2
sVinsert_where
p1259
I2
sasVfocused
p1260
I00
sVscratchpad_state
p1261
Vnone
p1262
sVrect
p1263
(dp1264
g101
I0
sg102
I1920
sVheight
p1265
I19
sVwidth
p1266
I1920
ssVwindow_rect
p1267
(dp1268
g101
I0
sg102
I0
sVheight
p1269
I0
sVwidth
p1270
I0
ssVname
p1271
Vtopdock
p1272
sVgeometry
p1273
(dp1274
g101
I0
sg102
I0
sVheight
p1275
I0
sVwidth
p1276
I0
ssVfloating_nodes
p1277
(lp1278
sVoutput
p1279
VDP1
p1280
sa(dp1281
Vfullscreen_mode
p1282
I0
sVorientation
p1283
Vhorizontal
p1284
sVfocus
p1285
(lp1286
I94349517693088
aI94349517450320
aI94349517432144
asVsticky
p1287
I00
sVurgent
p1288
I00
sVlast_split_layout
p1289
Vsplith
p1290
sVfloating
p1291
Vauto_off
p1292
sVborder
p1293
Vpixel
p1294
sVid
p1295
I94349517529360
sVcurrent_border_width
p1296
I-1
sVlayout
p1297
Vsplith
p1298
sVpercent
p1299
NsVworkspace_layout
p1300
Vdefault
p1301
sVwindow
p1302
NsVnodes
p1303
(lp1304
(dp1305
Vfullscreen_mode
p1306
I1
sVorientation
p1307
Vhorizontal
p1308
sVfocus
p1309
(lp1310
I94349517804480
asVsticky
p1311
I00
sVurgent
p1312
I00
sVnum
p1313
I1
sVlast_split_layout
p1314
Vsplith
p1315
sVfloating
p1316
Vauto_off
p1317
sVborder
p1318
Vpixel
p1319
sVid
p1320
I94349517693088
sVcurrent_border_width
p1321
I-1
sVlayout
p1322
Vsplith
p1323
sVpercent
p1324
F0.3333333333333333
sVworkspace_layout
p1325
Vdefault
p1326
sVwindow
p1327
NsVnodes
p1328
(lp1329
(dp1330
Vfullscreen_mode
p1331
I0
sVorientation
p1332
Vhorizontal
p1333
sVfocus
p1334
(lp1335
I94349517548656
asVsticky
p1336
I00
sVurgent
p1337
I00
sVlast_split_layout
p1338
Vsplith
p1339
sVfloating
p1340
Vauto_off
p1341
sVborder
p1342
Vpixel
p1343
sVid
p1344
I94349517804480
sVcurrent_border_width
p1345
I-1
sVlayout
p1346
Vsplith
p1347
sVpercent
p1348
NsVworkspace_layout
p1349
Vdefault
p1350
sVwindow
p1351
NsVnodes
p1352
(lp1353
(dp1354
Vwindow_properties
p1355
(dp1356
Vinstance
p1357
VNavigator
p1358
sVtransient_for
p1359
NsVwindow_role
p1360
Vbrowser
p1361
sVclass
p1362
VFirefox
p1363
sVtitle
p1364
Vadd product via desktop Wireframe - Mozilla Firefox
p1365
ssVfullscreen_mode
p1366
I0
sVorientation
p1367
Vnone
p1368
sg245
S'firefox'
p1369
sVfocus
p1370
(lp1371
sVsticky
p1372
I00
sVurgent
p1373
I00
sVlast_split_layout
p1374
Vsplith
p1375
sVfloating
p1376
Vauto_off
p1377
sVborder
p1378
Vpixel
p1379
sVid
p1380
I94349517548656
sVcurrent_border_width
p1381
I2
sVlayout
p1382
Vsplith
p1383
sVpercent
p1384
F1.0
sVworkspace_layout
p1385
Vdefault
p1386
sVwindow
p1387
I37748752
sVnodes
p1388
(lp1389
sVtype
p1390
Vcon
p1391
sVdeco_rect
p1392
(dp1393
g101
I0
sg102
I0
sVheight
p1394
I0
sVwidth
p1395
I0
ssVswallows
p1396
(lp1397
sVfocused
p1398
I01
sVscratchpad_state
p1399
Vnone
p1400
sVrect
p1401
(dp1402
g101
I19
sg102
I1920
sVheight
p1403
I1061
sVwidth
p1404
I1920
ssVwindow_rect
p1405
(dp1406
g101
I2
sg102
I2
sVheight
p1407
I1057
sVwidth
p1408
I1916
ssVname
p1409
Vadd product via desktop Wireframe - Mozilla Firefox
p1410
sVgeometry
p1411
(dp1412
g101
I0
sg102
I0
sVheight
p1413
I1057
sVwidth
p1414
I1916
ssVfloating_nodes
p1415
(lp1416
sVoutput
p1417
VDP1
p1418
sasVtype
p1419
Vcon
p1420
sVdeco_rect
p1421
(dp1422
g101
I0
sg102
I0
sVheight
p1423
I0
sVwidth
p1424
I0
ssVswallows
p1425
(lp1426
sVfocused
p1427
I00
sVscratchpad_state
p1428
Vnone
p1429
sVrect
p1430
(dp1431
g101
I19
sg102
I1920
sVheight
p1432
I1061
sVwidth
p1433
I1920
ssVwindow_rect
p1434
(dp1435
g101
I0
sg102
I0
sVheight
p1436
I0
sVwidth
p1437
I0
ssVname
p1438
NsVgeometry
p1439
(dp1440
g101
I0
sg102
I0
sVheight
p1441
I0
sVwidth
p1442
I0
ssVfloating_nodes
p1443
(lp1444
sVoutput
p1445
VDP1
p1446
sasVtype
p1447
Vworkspace
p1448
sVdeco_rect
p1449
(dp1450
g101
I0
sg102
I0
sVheight
p1451
I0
sVwidth
p1452
I0
ssVswallows
p1453
(lp1454
sVfocused
p1455
I00
sVscratchpad_state
p1456
Vnone
p1457
sVrect
p1458
(dp1459
g101
I19
sg102
I1920
sVheight
p1460
I1061
sVwidth
p1461
I1920
ssVwindow_rect
p1462
(dp1463
g101
I0
sg102
I0
sVheight
p1464
I0
sVwidth
p1465
I0
ssVname
p1466
V1
p1467
sVgeometry
p1468
(dp1469
g101
I0
sg102
I0
sVheight
p1470
I0
sVwidth
p1471
I0
ssVfloating_nodes
p1472
(lp1473
sVoutput
p1474
VDP1
p1475
sa(dp1476
Vfullscreen_mode
p1477
I0
sVorientation
p1478
Vhorizontal
p1479
sVfocus
p1480
(lp1481
I94349517652528
asVsticky
p1482
I00
sVurgent
p1483
I00
sVnum
p1484
I2
sVlast_split_layout
p1485
Vsplith
p1486
sVfloating
p1487
Vauto_off
p1488
sVborder
p1489
Vpixel
p1490
sVid
p1491
I94349517432144
sVcurrent_border_width
p1492
I-1
sVlayout
p1493
Vsplith
p1494
sVpercent
p1495
F0.3333333333333333
sVworkspace_layout
p1496
Vdefault
p1497
sVwindow
p1498
NsVnodes
p1499
(lp1500
(dp1501
Vwindow_properties
p1502
(dp1503
Vinstance
p1504
Vemacs
p1505
sVtransient_for
p1506
NsVclass
p1507
VEmacs
p1508
sVtitle
p1509
Vemacs@ollie-weshop
p1510
ssVfullscreen_mode
p1511
I0
sVorientation
p1512
Vnone
p1513
sg245
S'emacs'
p1514
sVfocus
p1515
(lp1516
sVsticky
p1517
I00
sVurgent
p1518
I00
sVlast_split_layout
p1519
Vsplith
p1520
sVfloating
p1521
Vauto_off
p1522
sVborder
p1523
Vpixel
p1524
sVid
p1525
I94349517652528
sVcurrent_border_width
p1526
I2
sVlayout
p1527
Vsplith
p1528
sVpercent
p1529
F1.0
sVworkspace_layout
p1530
Vdefault
p1531
sVwindow
p1532
I60817695
sVnodes
p1533
(lp1534
sVtype
p1535
Vcon
p1536
sVdeco_rect
p1537
(dp1538
g101
I0
sg102
I0
sVheight
p1539
I0
sVwidth
p1540
I0
ssVswallows
p1541
(lp1542
sVfocused
p1543
I00
sVscratchpad_state
p1544
Vnone
p1545
sVrect
p1546
(dp1547
g101
I19
sg102
I1920
sVheight
p1548
I1061
sVwidth
p1549
I1920
ssVwindow_rect
p1550
(dp1551
g101
I2
sg102
I2
sVheight
p1552
I1057
sVwidth
p1553
I1916
ssVname
p1554
Vemacs@ollie-weshop
p1555
sVgeometry
p1556
(dp1557
g101
I0
sg102
I0
sVheight
p1558
I675
sVwidth
p1559
I752
ssVfloating_nodes
p1560
(lp1561
sVoutput
p1562
VDP1
p1563
sasVtype
p1564
Vworkspace
p1565
sVdeco_rect
p1566
(dp1567
g101
I0
sg102
I0
sVheight
p1568
I0
sVwidth
p1569
I0
ssVswallows
p1570
(lp1571
sVfocused
p1572
I00
sVscratchpad_state
p1573
Vnone
p1574
sVrect
p1575
(dp1576
g101
I19
sg102
I1920
sVheight
p1577
I1061
sVwidth
p1578
I1920
ssVwindow_rect
p1579
(dp1580
g101
I0
sg102
I0
sVheight
p1581
I0
sVwidth
p1582
I0
ssVname
p1583
V2
p1584
sVgeometry
p1585
(dp1586
g101
I0
sg102
I0
sVheight
p1587
I0
sVwidth
p1588
I0
ssVfloating_nodes
p1589
(lp1590
sVoutput
p1591
VDP1
p1592
sa(dp1593
Vfullscreen_mode
p1594
I0
sVorientation
p1595
Vhorizontal
p1596
sVfocus
p1597
(lp1598
I94349517602608
asVsticky
p1599
I00
sVurgent
p1600
I00
sVnum
p1601
I3
sVlast_split_layout
p1602
Vsplith
p1603
sVfloating
p1604
Vauto_off
p1605
sVborder
p1606
Vpixel
p1607
sVid
p1608
I94349517450320
sVcurrent_border_width
p1609
I-1
sVlayout
p1610
Vsplith
p1611
sVpercent
p1612
F0.3333333333333333
sVworkspace_layout
p1613
Vdefault
p1614
sVwindow
p1615
NsVnodes
p1616
(lp1617
(dp1618
Vwindow_properties
p1619
(dp1620
Vinstance
p1621
Vchromium
p1622
sVtransient_for
p1623
NsVwindow_role
p1624
Vbrowser
p1625
sVclass
p1626
VChromium
p1627
sVtitle
p1628
VWeShop - Chromium
p1629
ssVfullscreen_mode
p1630
I0
sVorientation
p1631
Vnone
p1632
sg245
S'chromium'
p1633
sVfocus
p1634
(lp1635
sVsticky
p1636
I00
sVurgent
p1637
I00
sVlast_split_layout
p1638
Vsplith
p1639
sVfloating
p1640
Vauto_off
p1641
sVborder
p1642
Vpixel
p1643
sVid
p1644
I94349517602608
sVcurrent_border_width
p1645
I2
sVlayout
p1646
Vsplith
p1647
sVpercent
p1648
F1.0
sVworkspace_layout
p1649
Vdefault
p1650
sVwindow
p1651
I58720257
sVnodes
p1652
(lp1653
sVtype
p1654
Vcon
p1655
sVdeco_rect
p1656
(dp1657
g101
I0
sg102
I0
sVheight
p1658
I0
sVwidth
p1659
I0
ssVswallows
p1660
(lp1661
sVfocused
p1662
I00
sVscratchpad_state
p1663
Vnone
p1664
sVrect
p1665
(dp1666
g101
I19
sg102
I1920
sVheight
p1667
I1061
sVwidth
p1668
I1920
ssVwindow_rect
p1669
(dp1670
g101
I2
sg102
I2
sVheight
p1671
I1057
sVwidth
p1672
I1916
ssVname
p1673
VWeShop - Chromium
p1674
sVgeometry
p1675
(dp1676
g101
I21
sg102
I2882
sVheight
p1677
I1057
sVwidth
p1678
I956
ssVfloating_nodes
p1679
(lp1680
sVoutput
p1681
VDP1
p1682
sasVtype
p1683
Vworkspace
p1684
sVdeco_rect
p1685
(dp1686
g101
I0
sg102
I0
sVheight
p1687
I0
sVwidth
p1688
I0
ssVswallows
p1689
(lp1690
sVfocused
p1691
I00
sVscratchpad_state
p1692
Vnone
p1693
sVrect
p1694
(dp1695
g101
I19
sg102
I1920
sVheight
p1696
I1061
sVwidth
p1697
I1920
ssVwindow_rect
p1698
(dp1699
g101
I0
sg102
I0
sVheight
p1700
I0
sVwidth
p1701
I0
ssVname
p1702
V3
p1703
sVgeometry
p1704
(dp1705
g101
I0
sg102
I0
sVheight
p1706
I0
sVwidth
p1707
I0
ssVfloating_nodes
p1708
(lp1709
sVoutput
p1710
VDP1
p1711
sasVtype
p1712
Vcon
p1713
sVdeco_rect
p1714
(dp1715
g101
I0
sg102
I0
sVheight
p1716
I0
sVwidth
p1717
I0
ssVswallows
p1718
(lp1719
sVfocused
p1720
I00
sVscratchpad_state
p1721
Vnone
p1722
sVrect
p1723
(dp1724
g101
I19
sg102
I1920
sVheight
p1725
I1061
sVwidth
p1726
I1920
ssVwindow_rect
p1727
(dp1728
g101
I0
sg102
I0
sVheight
p1729
I0
sVwidth
p1730
I0
ssVname
p1731
Vcontent
p1732
sVgeometry
p1733
(dp1734
g101
I0
sg102
I0
sVheight
p1735
I0
sVwidth
p1736
I0
ssVfloating_nodes
p1737
(lp1738
sVoutput
p1739
VDP1
p1740
sa(dp1741
Vfullscreen_mode
p1742
I0
sVorientation
p1743
Vnone
p1744
sVfocus
p1745
(lp1746
sVsticky
p1747
I00
sVurgent
p1748
I00
sVlast_split_layout
p1749
Vsplith
p1750
sVfloating
p1751
Vauto_off
p1752
sVborder
p1753
Vpixel
p1754
sVid
p1755
I94349517532544
sVcurrent_border_width
p1756
I-1
sVlayout
p1757
Vdockarea
p1758
sVpercent
p1759
NsVworkspace_layout
p1760
Vdefault
p1761
sVwindow
p1762
NsVnodes
p1763
(lp1764
sVtype
p1765
Vdockarea
p1766
sVdeco_rect
p1767
(dp1768
g101
I0
sg102
I0
sVheight
p1769
I0
sVwidth
p1770
I0
ssVswallows
p1771
(lp1772
(dp1773
Vdock
p1774
I3
sVinsert_where
p1775
I2
sasVfocused
p1776
I00
sVscratchpad_state
p1777
Vnone
p1778
sVrect
p1779
(dp1780
g101
I1080
sg102
I1920
sVheight
p1781
I0
sVwidth
p1782
I1920
ssVwindow_rect
p1783
(dp1784
g101
I0
sg102
I0
sVheight
p1785
I0
sVwidth
p1786
I0
ssVname
p1787
Vbottomdock
p1788
sVgeometry
p1789
(dp1790
g101
I0
sg102
I0
sVheight
p1791
I0
sVwidth
p1792
I0
ssVfloating_nodes
p1793
(lp1794
sVoutput
p1795
VDP1
p1796
sasVtype
p1797
Voutput
p1798
sVdeco_rect
p1799
(dp1800
g101
I0
sg102
I0
sVheight
p1801
I0
sVwidth
p1802
I0
ssVswallows
p1803
(lp1804
sVfocused
p1805
I00
sVscratchpad_state
p1806
Vnone
p1807
sVrect
p1808
(dp1809
g101
I0
sg102
I1920
sVheight
p1810
I1080
sVwidth
p1811
I1920
ssVwindow_rect
p1812
(dp1813
g101
I0
sg102
I0
sVheight
p1814
I0
sVwidth
p1815
I0
ssVname
p1816
VDP1
p1817
sVgeometry
p1818
(dp1819
g101
I0
sg102
I0
sVheight
p1820
I0
sVwidth
p1821
I0
ssVfloating_nodes
p1822
(lp1823
sasVtype
p1824
Vroot
p1825
sVdeco_rect
p1826
(dp1827
g101
I0
sg102
I0
sVheight
p1828
I0
sVwidth
p1829
I0
ssVswallows
p1830
(lp1831
sVfocused
p1832
I00
sVscratchpad_state
p1833
Vnone
p1834
sVrect
p1835
(dp1836
g101
I0
sg102
I0
sVheight
p1837
I1080
sVwidth
p1838
I3840
ssVwindow_rect
p1839
(dp1840
g101
I0
sg102
I0
sVheight
p1841
I0
sVwidth
p1842
I0
ssVname
p1843
Vroot
p1844
sVgeometry
p1845
(dp1846
g101
I0
sg102
I0
sVheight
p1847
I0
sVwidth
p1848
I0
ssVfloating_nodes
p1849
(lp1850
s.